target datalayout = "e-m:e-p270:32:32-p271:32:32-p272:64:64-i64:64-i128:128-f80:128-n8:16:32:64-S128"
target triple = "x86_64-pc-linux-gnu"

%struct.AllocSetContext = type { %struct.MemoryContextData, ptr, [11 x ptr], i32, i32, i32, i32, i32 }
%struct.MemoryContextData = type { i32, i8, i8, i64, ptr, ptr, ptr, ptr, ptr, ptr, ptr, ptr }
%struct.AllocBlockData = type { ptr, ptr, ptr, ptr, ptr }
%struct.AllocFreeListLink = type { ptr }
%struct.MemoryChunk = type { i64 }

; Function Attrs: inlinehint nounwind uwtable
define internal i32 @pg_leftmost_one_pos32(i32 noundef %0) #8 {
  %2 = alloca i32, align 4
  store i32 %0, ptr %2, align 4
  %3 = load i32, ptr %2, align 4
  %4 = call i32 @llvm.ctlz.i32(i32 %3, i1 true)
  %5 = sub i32 31, %4
  ret i32 %5
}

; Function Attrs: inlinehint nounwind uwtable
define internal ptr @AllocSetAllocChunkFromBlock(ptr noundef %0, ptr noundef %1, i64 noundef %2, i64 noundef %3, i32 noundef %4) #8 {
  %6 = alloca ptr, align 8
  %7 = alloca ptr, align 8
  %8 = alloca i64, align 8
  %9 = alloca i64, align 8
  %10 = alloca i32, align 4
  %11 = alloca ptr, align 8
  store ptr %0, ptr %6, align 8
  store ptr %1, ptr %7, align 8
  store i64 %2, ptr %8, align 8
  store i64 %3, ptr %9, align 8
  store i32 %4, ptr %10, align 4
  call void @llvm.lifetime.start.p0(i64 8, ptr %11) #14
  %12 = load ptr, ptr %7, align 8
  %13 = getelementptr inbounds nuw %struct.AllocBlockData, ptr %12, i32 0, i32 3
  %14 = load ptr, ptr %13, align 8
  store ptr %14, ptr %11, align 8
  br label %15

15:                                               ; preds = %5
  br label %16

16:                                               ; preds = %15
  br label %17

17:                                               ; preds = %16
  %18 = load i64, ptr %9, align 8
  %19 = add i64 %18, 8
  %20 = load ptr, ptr %7, align 8
  %21 = getelementptr inbounds nuw %struct.AllocBlockData, ptr %20, i32 0, i32 3
  %22 = load ptr, ptr %21, align 8
  %23 = getelementptr inbounds nuw i8, ptr %22, i64 %19
  store ptr %23, ptr %21, align 8
  %24 = load ptr, ptr %11, align 8
  %25 = load ptr, ptr %7, align 8
  %26 = load i32, ptr %10, align 4
  %27 = sext i32 %26 to i64
  call void @MemoryChunkSetHdrMask(ptr noundef %24, ptr noundef %25, i64 noundef %27, i32 noundef 3)
  br label %28

28:                                               ; preds = %17
  br label %29

29:                                               ; preds = %28
  br label %30

30:                                               ; preds = %29
  br label %31

31:                                               ; preds = %30
  br label %32

32:                                               ; preds = %31
  br label %33

33:                                               ; preds = %32
  %34 = load ptr, ptr %11, align 8
  %35 = getelementptr inbounds nuw i8, ptr %34, i64 8
  call void @llvm.lifetime.end.p0(i64 8, ptr %11) #14
  ret ptr %35
}

; Function Attrs: inlinehint nounwind uwtable
define internal void @MemoryChunkSetHdrMask(ptr noundef %0, ptr noundef %1, i64 noundef %2, i32 noundef %3) #8 {
  %5 = alloca ptr, align 8
  %6 = alloca ptr, align 8
  %7 = alloca i64, align 8
  %8 = alloca i32, align 4
  %9 = alloca i64, align 8
  store ptr %0, ptr %5, align 8
  store ptr %1, ptr %6, align 8
  store i64 %2, ptr %7, align 8
  store i32 %3, ptr %8, align 4
  call void @llvm.lifetime.start.p0(i64 8, ptr %9) #14
  %10 = load ptr, ptr %5, align 8
  %11 = load ptr, ptr %6, align 8
  %12 = ptrtoint ptr %10 to i64
  %13 = ptrtoint ptr %11 to i64
  %14 = sub i64 %12, %13
  store i64 %14, ptr %9, align 8
  %15 = load i64, ptr %9, align 8
  %16 = shl i64 %15, 34
  %17 = load i64, ptr %7, align 8
  %18 = shl i64 %17, 5
  %19 = or i64 %16, %18
  %20 = load i32, ptr %8, align 4
  %21 = zext i32 %20 to i64
  %22 = or i64 %19, %21
  %23 = load ptr, ptr %5, align 8
  %24 = getelementptr inbounds nuw %struct.MemoryChunk, ptr %23, i32 0, i32 0
  store i64 %22, ptr %24, align 8
  call void @llvm.lifetime.end.p0(i64 8, ptr %9) #14
  ret void
}

; Function Attrs: inlinehint nounwind uwtable
define internal i32 @AllocSetFreeIndex(i64 noundef %0) #8 {
  %2 = alloca i64, align 8
  %3 = alloca i32, align 4
  store i64 %0, ptr %2, align 8
  call void @llvm.lifetime.start.p0(i64 4, ptr %3) #14
  %4 = load i64, ptr %2, align 8
  %5 = icmp ugt i64 %4, 8
  br i1 %5, label %6, label %13

6:                                                ; preds = %1
  %7 = load i64, ptr %2, align 8
  %8 = trunc i64 %7 to i32
  %9 = sub i32 %8, 1
  %10 = call i32 @pg_leftmost_one_pos32(i32 noundef %9)
  %11 = sub i32 %10, 3
  %12 = add i32 %11, 1
  store i32 %12, ptr %3, align 4
  br label %14

13:                                               ; preds = %1
  store i32 0, ptr %3, align 4
  br label %14

14:                                               ; preds = %13, %6
  %15 = load i32, ptr %3, align 4
  call void @llvm.lifetime.end.p0(i64 4, ptr %3) #14
  ret i32 %15
}

; Function Attrs: noinline nounwind uwtable
define internal ptr @AllocSetAllocFromNewBlock(ptr noundef %0, i64 noundef %1, i32 noundef %2, i32 noundef %3) #7 {
  %5 = alloca ptr, align 8
  %6 = alloca ptr, align 8
  %7 = alloca i64, align 8
  %8 = alloca i32, align 4
  %9 = alloca i32, align 4
  %10 = alloca ptr, align 8
  %11 = alloca ptr, align 8
  %12 = alloca i64, align 8
  %13 = alloca i64, align 8
  %14 = alloca i64, align 8
  %15 = alloca i64, align 8
  %16 = alloca ptr, align 8
  %17 = alloca ptr, align 8
  %18 = alloca i64, align 8
  %19 = alloca i32, align 4
  %20 = alloca i32, align 4
  store ptr %0, ptr %6, align 8
  store i64 %1, ptr %7, align 8
  store i32 %2, ptr %8, align 4
  store i32 %3, ptr %9, align 4
  call void @llvm.lifetime.start.p0(i64 8, ptr %10) #14
  %21 = load ptr, ptr %6, align 8
  store ptr %21, ptr %10, align 8
  call void @llvm.lifetime.start.p0(i64 8, ptr %11) #14
  call void @llvm.lifetime.start.p0(i64 8, ptr %12) #14
  call void @llvm.lifetime.start.p0(i64 8, ptr %13) #14
  call void @llvm.lifetime.start.p0(i64 8, ptr %14) #14
  call void @llvm.lifetime.start.p0(i64 8, ptr %15) #14
  %22 = load ptr, ptr %10, align 8
  %23 = getelementptr inbounds nuw %struct.AllocSetContext, ptr %22, i32 0, i32 1
  %24 = load ptr, ptr %23, align 8
  store ptr %24, ptr %11, align 8
  %25 = load ptr, ptr %11, align 8
  %26 = getelementptr inbounds nuw %struct.AllocBlockData, ptr %25, i32 0, i32 4
  %27 = load ptr, ptr %26, align 8
  %28 = load ptr, ptr %11, align 8
  %29 = getelementptr inbounds nuw %struct.AllocBlockData, ptr %28, i32 0, i32 3
  %30 = load ptr, ptr %29, align 8
  %31 = ptrtoint ptr %27 to i64
  %32 = ptrtoint ptr %30 to i64
  %33 = sub i64 %31, %32
  store i64 %33, ptr %12, align 8
  br label %34

34:                                               ; preds = %89, %4
  %35 = load i64, ptr %12, align 8
  %36 = icmp uge i64 %35, 16
  br i1 %36, label %37, label %96

37:                                               ; preds = %34
  call void @llvm.lifetime.start.p0(i64 8, ptr %16) #14
  call void @llvm.lifetime.start.p0(i64 8, ptr %17) #14
  call void @llvm.lifetime.start.p0(i64 8, ptr %18) #14
  %38 = load i64, ptr %12, align 8
  %39 = sub i64 %38, 8
  store i64 %39, ptr %18, align 8
  call void @llvm.lifetime.start.p0(i64 4, ptr %19) #14
  %40 = load i64, ptr %18, align 8
  %41 = call i32 @AllocSetFreeIndex(i64 noundef %40)
  store i32 %41, ptr %19, align 4
  %42 = load i64, ptr %18, align 8
  %43 = load i32, ptr %19, align 4
  %44 = zext i32 %43 to i64
  %45 = shl i64 8, %44
  %46 = icmp ne i64 %42, %45
  br i1 %46, label %47, label %53

47:                                               ; preds = %37
  %48 = load i32, ptr %19, align 4
  %49 = add i32 %48, -1
  store i32 %49, ptr %19, align 4
  %50 = load i32, ptr %19, align 4
  %51 = zext i32 %50 to i64
  %52 = shl i64 8, %51
  store i64 %52, ptr %18, align 8
  br label %53

53:                                               ; preds = %47, %37
  %54 = load ptr, ptr %11, align 8
  %55 = getelementptr inbounds nuw %struct.AllocBlockData, ptr %54, i32 0, i32 3
  %56 = load ptr, ptr %55, align 8
  store ptr %56, ptr %17, align 8
  br label %57

57:                                               ; preds = %53
  br label %58

58:                                               ; preds = %57
  br label %59

59:                                               ; preds = %58
  %60 = load i64, ptr %18, align 8
  %61 = add i64 %60, 8
  %62 = load ptr, ptr %11, align 8
  %63 = getelementptr inbounds nuw %struct.AllocBlockData, ptr %62, i32 0, i32 3
  %64 = load ptr, ptr %63, align 8
  %65 = getelementptr inbounds nuw i8, ptr %64, i64 %61
  store ptr %65, ptr %63, align 8
  %66 = load i64, ptr %18, align 8
  %67 = add i64 %66, 8
  %68 = load i64, ptr %12, align 8
  %69 = sub i64 %68, %67
  store i64 %69, ptr %12, align 8
  %70 = load ptr, ptr %17, align 8
  %71 = load ptr, ptr %11, align 8
  %72 = load i32, ptr %19, align 4
  %73 = sext i32 %72 to i64
  call void @MemoryChunkSetHdrMask(ptr noundef %70, ptr noundef %71, i64 noundef %73, i32 noundef 3)
  %74 = load ptr, ptr %17, align 8
  %75 = getelementptr inbounds nuw i8, ptr %74, i64 8
  store ptr %75, ptr %16, align 8
  br label %76

76:                                               ; preds = %59
  br label %77

77:                                               ; preds = %76
  br label %78

78:                                               ; preds = %77
  %79 = load ptr, ptr %10, align 8
  %80 = getelementptr inbounds nuw %struct.AllocSetContext, ptr %79, i32 0, i32 2
  %81 = load i32, ptr %19, align 4
  %82 = sext i32 %81 to i64
  %83 = getelementptr inbounds [11 x ptr], ptr %80, i64 0, i64 %82
  %84 = load ptr, ptr %83, align 8
  %85 = load ptr, ptr %16, align 8
  %86 = getelementptr inbounds nuw %struct.AllocFreeListLink, ptr %85, i32 0, i32 0
  store ptr %84, ptr %86, align 8
  br label %87

87:                                               ; preds = %78
  br label %88

88:                                               ; preds = %87
  br label %89

89:                                               ; preds = %88
  %90 = load ptr, ptr %17, align 8
  %91 = load ptr, ptr %10, align 8
  %92 = getelementptr inbounds nuw %struct.AllocSetContext, ptr %91, i32 0, i32 2
  %93 = load i32, ptr %19, align 4
  %94 = sext i32 %93 to i64
  %95 = getelementptr inbounds [11 x ptr], ptr %92, i64 0, i64 %94
  store ptr %90, ptr %95, align 8
  call void @llvm.lifetime.end.p0(i64 4, ptr %19) #14
  call void @llvm.lifetime.end.p0(i64 8, ptr %18) #14
  call void @llvm.lifetime.end.p0(i64 8, ptr %17) #14
  call void @llvm.lifetime.end.p0(i64 8, ptr %16) #14
  br label %34, !llvm.loop !13

96:                                               ; preds = %34
  %97 = load ptr, ptr %10, align 8
  %98 = getelementptr inbounds nuw %struct.AllocSetContext, ptr %97, i32 0, i32 5
  %99 = load i32, ptr %98, align 8
  %100 = zext i32 %99 to i64
  store i64 %100, ptr %13, align 8
  %101 = load ptr, ptr %10, align 8
  %102 = getelementptr inbounds nuw %struct.AllocSetContext, ptr %101, i32 0, i32 5
  %103 = load i32, ptr %102, align 8
  %104 = shl i32 %103, 1
  store i32 %104, ptr %102, align 8
  %105 = load ptr, ptr %10, align 8
  %106 = getelementptr inbounds nuw %struct.AllocSetContext, ptr %105, i32 0, i32 5
  %107 = load i32, ptr %106, align 8
  %108 = load ptr, ptr %10, align 8
  %109 = getelementptr inbounds nuw %struct.AllocSetContext, ptr %108, i32 0, i32 4
  %110 = load i32, ptr %109, align 4
  %111 = icmp ugt i32 %107, %110
  br i1 %111, label %112, label %118

112:                                              ; preds = %96
  %113 = load ptr, ptr %10, align 8
  %114 = getelementptr inbounds nuw %struct.AllocSetContext, ptr %113, i32 0, i32 4
  %115 = load i32, ptr %114, align 4
  %116 = load ptr, ptr %10, align 8
  %117 = getelementptr inbounds nuw %struct.AllocSetContext, ptr %116, i32 0, i32 5
  store i32 %115, ptr %117, align 8
  br label %118

118:                                              ; preds = %112, %96
  %119 = load i32, ptr %9, align 4
  %120 = zext i32 %119 to i64
  %121 = shl i64 8, %120
  store i64 %121, ptr %15, align 8
  %122 = load i64, ptr %15, align 8
  %123 = add i64 %122, 40
  %124 = add i64 %123, 8
  store i64 %124, ptr %14, align 8
  br label %125

125:                                              ; preds = %129, %118
  %126 = load i64, ptr %13, align 8
  %127 = load i64, ptr %14, align 8
  %128 = icmp ult i64 %126, %127
  br i1 %128, label %129, label %132

129:                                              ; preds = %125
  %130 = load i64, ptr %13, align 8
  %131 = shl i64 %130, 1
  store i64 %131, ptr %13, align 8
  br label %125, !llvm.loop !14

132:                                              ; preds = %125
  %133 = load i64, ptr %13, align 8
  %134 = call noalias ptr @malloc(i64 noundef %133) #15
  store ptr %134, ptr %11, align 8
  br label %135

135:                                              ; preds = %150, %132
  %136 = load ptr, ptr %11, align 8
  %137 = icmp eq ptr %136, null
  br i1 %137, label %138, label %141

138:                                              ; preds = %135
  %139 = load i64, ptr %13, align 8
  %140 = icmp ugt i64 %139, 1048576
  br label %141

141:                                              ; preds = %138, %135
  %142 = phi i1 [ false, %135 ], [ %140, %138 ]
  br i1 %142, label %143, label %153

143:                                              ; preds = %141
  %144 = load i64, ptr %13, align 8
  %145 = lshr i64 %144, 1
  store i64 %145, ptr %13, align 8
  %146 = load i64, ptr %13, align 8
  %147 = load i64, ptr %14, align 8
  %148 = icmp ult i64 %146, %147
  br i1 %148, label %149, label %150

149:                                              ; preds = %143
  br label %153

150:                                              ; preds = %143
  %151 = load i64, ptr %13, align 8
  %152 = call noalias ptr @malloc(i64 noundef %151) #15
  store ptr %152, ptr %11, align 8
  br label %135, !llvm.loop !15

153:                                              ; preds = %149, %141
  %154 = load ptr, ptr %11, align 8
  %155 = icmp eq ptr %154, null
  br i1 %155, label %156, label %161

156:                                              ; preds = %153
  %157 = load ptr, ptr %6, align 8
  %158 = load i64, ptr %7, align 8
  %159 = load i32, ptr %8, align 4
  %160 = call ptr @MemoryContextAllocationFailure(ptr noundef %157, i64 noundef %158, i32 noundef %159)
  store ptr %160, ptr %5, align 8
  store i32 1, ptr %20, align 4
  br label %209

161:                                              ; preds = %153
  %162 = load i64, ptr %13, align 8
  %163 = load ptr, ptr %6, align 8
  %164 = getelementptr inbounds nuw %struct.MemoryContextData, ptr %163, i32 0, i32 3
  %165 = load i64, ptr %164, align 8
  %166 = add i64 %165, %162
  store i64 %166, ptr %164, align 8
  %167 = load ptr, ptr %10, align 8
  %168 = load ptr, ptr %11, align 8
  %169 = getelementptr inbounds nuw %struct.AllocBlockData, ptr %168, i32 0, i32 0
  store ptr %167, ptr %169, align 8
  %170 = load ptr, ptr %11, align 8
  %171 = getelementptr inbounds nuw i8, ptr %170, i64 40
  %172 = load ptr, ptr %11, align 8
  %173 = getelementptr inbounds nuw %struct.AllocBlockData, ptr %172, i32 0, i32 3
  store ptr %171, ptr %173, align 8
  %174 = load ptr, ptr %11, align 8
  %175 = load i64, ptr %13, align 8
  %176 = getelementptr inbounds nuw i8, ptr %174, i64 %175
  %177 = load ptr, ptr %11, align 8
  %178 = getelementptr inbounds nuw %struct.AllocBlockData, ptr %177, i32 0, i32 4
  store ptr %176, ptr %178, align 8
  br label %179

179:                                              ; preds = %161
  br label %180

180:                                              ; preds = %179
  br label %181

181:                                              ; preds = %180
  %182 = load ptr, ptr %11, align 8
  %183 = getelementptr inbounds nuw %struct.AllocBlockData, ptr %182, i32 0, i32 1
  store ptr null, ptr %183, align 8
  %184 = load ptr, ptr %10, align 8
  %185 = getelementptr inbounds nuw %struct.AllocSetContext, ptr %184, i32 0, i32 1
  %186 = load ptr, ptr %185, align 8
  %187 = load ptr, ptr %11, align 8
  %188 = getelementptr inbounds nuw %struct.AllocBlockData, ptr %187, i32 0, i32 2
  store ptr %186, ptr %188, align 8
  %189 = load ptr, ptr %11, align 8
  %190 = getelementptr inbounds nuw %struct.AllocBlockData, ptr %189, i32 0, i32 2
  %191 = load ptr, ptr %190, align 8
  %192 = icmp ne ptr %191, null
  br i1 %192, label %193, label %199

193:                                              ; preds = %181
  %194 = load ptr, ptr %11, align 8
  %195 = load ptr, ptr %11, align 8
  %196 = getelementptr inbounds nuw %struct.AllocBlockData, ptr %195, i32 0, i32 2
  %197 = load ptr, ptr %196, align 8
  %198 = getelementptr inbounds nuw %struct.AllocBlockData, ptr %197, i32 0, i32 1
  store ptr %194, ptr %198, align 8
  br label %199

199:                                              ; preds = %193, %181
  %200 = load ptr, ptr %11, align 8
  %201 = load ptr, ptr %10, align 8
  %202 = getelementptr inbounds nuw %struct.AllocSetContext, ptr %201, i32 0, i32 1
  store ptr %200, ptr %202, align 8
  %203 = load ptr, ptr %6, align 8
  %204 = load ptr, ptr %11, align 8
  %205 = load i64, ptr %7, align 8
  %206 = load i64, ptr %15, align 8
  %207 = load i32, ptr %9, align 4
  %208 = call ptr @AllocSetAllocChunkFromBlock(ptr noundef %203, ptr noundef %204, i64 noundef %205, i64 noundef %206, i32 noundef %207)
  store ptr %208, ptr %5, align 8
  store i32 1, ptr %20, align 4
  br label %209

209:                                              ; preds = %199, %156
  call void @llvm.lifetime.end.p0(i64 8, ptr %15) #14
  call void @llvm.lifetime.end.p0(i64 8, ptr %14) #14
  call void @llvm.lifetime.end.p0(i64 8, ptr %13) #14
  call void @llvm.lifetime.end.p0(i64 8, ptr %12) #14
  call void @llvm.lifetime.end.p0(i64 8, ptr %11) #14
  call void @llvm.lifetime.end.p0(i64 8, ptr %10) #14
  %210 = load ptr, ptr %5, align 8
  ret ptr %210
}