; Function Attrs: noinline nounwind uwtable
define internal fastcc ptr @AllocSetAllocFromNewBlock(ptr noundef %0, i64 noundef range(i64 0, 4294967296) %1, i32 noundef %2, i32 noundef %3) unnamed_addr #6 {
  %5 = getelementptr inbounds nuw i8, ptr %0, i64 80
  %6 = load ptr, ptr %5, align 8
  %7 = getelementptr inbounds nuw i8, ptr %6, i64 32
  %8 = load ptr, ptr %7, align 8
  %9 = getelementptr inbounds nuw i8, ptr %6, i64 24
  %10 = load ptr, ptr %9, align 8
  %11 = ptrtoint ptr %8 to i64
  %12 = ptrtoint ptr %10 to i64
  %13 = sub i64 %11, %12
  %14 = icmp ugt i64 %13, 15
  br i1 %14, label %.lr.ph, label %._crit_edge

.lr.ph:                                           ; preds = %4
  %15 = ptrtoint ptr %6 to i64
  %16 = getelementptr inbounds nuw i8, ptr %0, i64 88
  br label %17

17:                                               ; preds = %.lr.ph, %17
  %.07386 = phi i64 [ %13, %.lr.ph ], [ %32, %17 ]
  %18 = add i64 %.07386, -8
  %19 = icmp ugt i64 %18, 8
  %20 = trunc i64 %18 to i32
  %21 = add i32 %20, -1
  %22 = tail call range(i32 0, 33) i32 @llvm.ctlz.i32(i32 %21, i1 true)
  %23 = sub nsw i32 29, %22
  %.0.i = select i1 %19, i32 %23, i32 0
  %24 = zext nneg i32 %.0.i to i64
  %25 = shl i64 8, %24
  %.not81 = icmp eq i64 %18, %25
  %26 = add nsw i32 %.0.i, -1
  %27 = zext nneg i32 %26 to i64
  %28 = shl i64 8, %27
  %29 = add nuw i64 %28, 8
  %.070 = select i1 %.not81, i64 %.07386, i64 %29
  %.0 = select i1 %.not81, i32 %.0.i, i32 %26
  %30 = load ptr, ptr %9, align 8
  %31 = getelementptr inbounds nuw i8, ptr %30, i64 %.070
  store ptr %31, ptr %9, align 8
  %32 = sub i64 %.07386, %.070
  %33 = sext i32 %.0 to i64
  %34 = ptrtoint ptr %30 to i64
  %35 = sub i64 %34, %15
  %36 = shl i64 %35, 34
  %37 = shl nsw i64 %33, 5
  %38 = or i64 %37, %36
  %39 = or disjoint i64 %38, 3
  store i64 %39, ptr %30, align 8
  %40 = getelementptr inbounds nuw i8, ptr %30, i64 8
  %41 = getelementptr inbounds [11 x ptr], ptr %16, i64 0, i64 %33
  %42 = load ptr, ptr %41, align 8
  store ptr %42, ptr %40, align 8
  store ptr %30, ptr %41, align 8
  %43 = icmp ugt i64 %32, 15
  br i1 %43, label %17, label %._crit_edge, !llvm.loop !12

._crit_edge:                                      ; preds = %17, %4
  %44 = getelementptr inbounds nuw i8, ptr %0, i64 184
  %45 = load i32, ptr %44, align 8
  %46 = zext i32 %45 to i64
  %47 = shl i32 %45, 1
  %48 = getelementptr inbounds nuw i8, ptr %0, i64 180
  %49 = load i32, ptr %48, align 4
  %spec.store.select = tail call i32 @llvm.umin.i32(i32 %47, i32 %49)
  store i32 %spec.store.select, ptr %44, align 8
  %50 = zext nneg i32 %3 to i64
  %51 = shl i64 8, %50
  %52 = add nuw i64 %51, 48
  br label %53

53:                                               ; preds = %53, %._crit_edge
  %.074 = phi i64 [ %46, %._crit_edge ], [ %55, %53 ]
  %54 = icmp ult i64 %.074, %52
  %55 = shl i64 %.074, 1
  br i1 %54, label %53, label %56, !llvm.loop !13

56:                                               ; preds = %53
  %57 = tail call noalias ptr @malloc(i64 noundef %.074) #16
  %58 = icmp eq ptr %57, null
  %59 = icmp ugt i64 %.074, 1048576
  %60 = and i1 %59, %58
  br i1 %60, label %.lr.ph89, label %._crit_edge90

.lr.ph89:                                         ; preds = %56, %63
  %.187 = phi i64 [ %61, %63 ], [ %.074, %56 ]
  %61 = lshr i64 %.187, 1
  %62 = icmp ult i64 %61, %52
  br i1 %62, label %.thread, label %63

63:                                               ; preds = %.lr.ph89
  %64 = tail call noalias ptr @malloc(i64 noundef %61) #16
  %65 = icmp eq ptr %64, null
  %66 = icmp ugt i64 %.187, 2097153
  %67 = and i1 %66, %65
  br i1 %67, label %.lr.ph89, label %._crit_edge90, !llvm.loop !14

._crit_edge90:                                    ; preds = %63, %56
  %.1.lcssa = phi i64 [ %.074, %56 ], [ %61, %63 ]
  %.072.lcssa = phi ptr [ %57, %56 ], [ %64, %63 ]
  %.lcssa = phi i1 [ %58, %56 ], [ %65, %63 ]
  br i1 %.lcssa, label %.thread, label %69

.thread:                                          ; preds = %.lr.ph89, %._crit_edge90
  %68 = tail call ptr @MemoryContextAllocationFailure(ptr noundef %0, i64 noundef %1, i32 noundef %2) #15
  br label %95

69:                                               ; preds = %._crit_edge90
  %70 = getelementptr inbounds nuw i8, ptr %0, i64 8
  %71 = load i64, ptr %70, align 8
  %72 = add i64 %71, %.1.lcssa
  store i64 %72, ptr %70, align 8
  store ptr %0, ptr %.072.lcssa, align 8
  %73 = getelementptr inbounds nuw i8, ptr %.072.lcssa, i64 40
  %74 = getelementptr inbounds nuw i8, ptr %.072.lcssa, i64 24
  store ptr %73, ptr %74, align 8
  %75 = getelementptr inbounds nuw i8, ptr %.072.lcssa, i64 %.1.lcssa
  %76 = getelementptr inbounds nuw i8, ptr %.072.lcssa, i64 32
  store ptr %75, ptr %76, align 8
  %77 = getelementptr inbounds nuw i8, ptr %.072.lcssa, i64 8
  store ptr null, ptr %77, align 8
  %78 = load ptr, ptr %5, align 8
  %79 = getelementptr inbounds nuw i8, ptr %.072.lcssa, i64 16
  store ptr %78, ptr %79, align 8
  %.not = icmp eq ptr %78, null
  br i1 %.not, label %82, label %80

80:                                               ; preds = %69
  %81 = getelementptr inbounds nuw i8, ptr %78, i64 8
  store ptr %.072.lcssa, ptr %81, align 8
  %.pre = load ptr, ptr %74, align 8
  br label %82

82:                                               ; preds = %80, %69
  %83 = phi ptr [ %.pre, %80 ], [ %73, %69 ]
  store ptr %.072.lcssa, ptr %5, align 8
  %84 = getelementptr i8, ptr %83, i64 %51
  %85 = getelementptr i8, ptr %84, i64 8
  store ptr %85, ptr %74, align 8
  %86 = sext i32 %3 to i64
  %87 = ptrtoint ptr %83 to i64
  %88 = ptrtoint ptr %.072.lcssa to i64
  %89 = sub i64 %87, %88
  %90 = shl i64 %89, 34
  %91 = shl nsw i64 %86, 5
  %92 = or i64 %91, %90
  %93 = or disjoint i64 %92, 3
  store i64 %93, ptr %83, align 8
  %94 = getelementptr inbounds nuw i8, ptr %83, i64 8
  br label %95

95:                                               ; preds = %82, %.thread
  %.071 = phi ptr [ %68, %.thread ], [ %94, %82 ]
  ret ptr %.071
}